target datalayout = "e-m:e-p270:32:32-p271:32:32-p272:64:64-i64:64-i128:128-f80:128-n8:16:32:64-S128"
target triple = "x86_64-pc-linux-gnu"

@hf_netlogon_group_rid = internal global i32 0, align 4
@ett_GROUP_MEMBERSHIP = internal global i32 0, align 4
@.str.893 = private unnamed_addr constant [18 x i8] c"GROUP_MEMBERSHIP:\00", align 1

; Function Attrs: null_pointer_is_valid sspstrong uwtable
define internal i32 @netlogon_dissect_GROUP_MEMBERSHIP(ptr noundef %0, i32 noundef %1, ptr noundef %2, ptr noundef %3, ptr noundef %4, ptr noundef %5) #0 {
  %7 = alloca ptr, align 8
  %8 = alloca i32, align 4
  %9 = alloca ptr, align 8
  %10 = alloca ptr, align 8
  %11 = alloca ptr, align 8
  %12 = alloca ptr, align 8
  %13 = alloca ptr, align 8
  %14 = alloca ptr, align 8
  store ptr %0, ptr %7, align 8
  store i32 %1, ptr %8, align 4
  store ptr %2, ptr %9, align 8
  store ptr %3, ptr %10, align 8
  store ptr %4, ptr %11, align 8
  store ptr %5, ptr %12, align 8
  call void @llvm.lifetime.start.p0(i64 8, ptr %13) #15
  store ptr null, ptr %13, align 8
  call void @llvm.lifetime.start.p0(i64 8, ptr %14) #15
  store ptr null, ptr %14, align 8
  %15 = load ptr, ptr %10, align 8
  %16 = icmp ne ptr %15, null
  br i1 %16, label %17, label %23

17:                                               ; preds = %6
  %18 = load ptr, ptr %10, align 8
  %19 = load ptr, ptr %7, align 8
  %20 = load i32, ptr %8, align 4
  %21 = load i32, ptr @ett_GROUP_MEMBERSHIP, align 4
  %22 = call ptr @proto_tree_add_subtree(ptr noundef %18, ptr noundef %19, i32 noundef %20, i32 noundef 0, i32 noundef %21, ptr noundef %13, ptr noundef @.str.893)
  store ptr %22, ptr %14, align 8
  br label %23

23:                                               ; preds = %17, %6
  %24 = load ptr, ptr %7, align 8
  %25 = load i32, ptr %8, align 4
  %26 = load ptr, ptr %9, align 8
  %27 = load ptr, ptr %14, align 8
  %28 = load ptr, ptr %11, align 8
  %29 = load ptr, ptr %12, align 8
  %30 = load i32, ptr @hf_netlogon_group_rid, align 4
  %31 = call i32 @dissect_ndr_uint32(ptr noundef %24, i32 noundef %25, ptr noundef %26, ptr noundef %27, ptr noundef %28, ptr noundef %29, i32 noundef %30, ptr noundef null)
  store i32 %31, ptr %8, align 4
  %32 = load ptr, ptr %7, align 8
  %33 = load i32, ptr %8, align 4
  %34 = load ptr, ptr %9, align 8
  %35 = load ptr, ptr %14, align 8
  %36 = load ptr, ptr %11, align 8
  %37 = load ptr, ptr %12, align 8
  %38 = call i32 @dissect_ndr_nt_SE_GROUP_ATTRIBUTES(ptr noundef %32, i32 noundef %33, ptr noundef %34, ptr noundef %35, ptr noundef %36, ptr noundef %37)
  store i32 %38, ptr %8, align 4
  %39 = load i32, ptr %8, align 4
  call void @llvm.lifetime.end.p0(i64 8, ptr %14) #15
  call void @llvm.lifetime.end.p0(i64 8, ptr %13) #15
  ret i32 %39
}